target datalayout = "e-m:e-p270:32:32-p271:32:32-p272:64:64-i64:64-i128:128-f80:128-n8:16:32:64-S128"
target triple = "x86_64-pc-linux-gnu"

%"class.std::__cxx11::basic_string" = type { %"struct.std::__cxx11::basic_string<char>::_Alloc_hider", i64, %union.anon }
%"struct.std::__cxx11::basic_string<char>::_Alloc_hider" = type { ptr }
%union.anon = type { i64, [8 x i8] }

@stderr = external global ptr, align 8
@__const._ZN32pxrInternal_v0_24__pxrReserved__14ArchFileAdviseEP8_IO_FILElmNS_14ArchFileAdviceE.adviceMap = private unnamed_addr constant [4 x i32] [i32 0, i32 3, i32 4, i32 1], align 16
@.str.8 = private unnamed_addr constant [65 x i8] c"failed call to posix_fadvise(%d, %zd, %zd)ret=%d, errno=%d '%s'\0A\00", align 1

; Function Attrs: mustprogress uwtable
define void @_ZN32pxrInternal_v0_24__pxrReserved__14ArchFileAdviseEP8_IO_FILElmNS_14ArchFileAdviceE(ptr noundef %0, i64 noundef %1, i64 noundef %2, i32 noundef %3) #0 {
  %5 = alloca ptr, align 8
  %6 = alloca i64, align 8
  %7 = alloca i64, align 8
  %8 = alloca i32, align 4
  %9 = alloca [4 x i32], align 16
  %10 = alloca i32, align 4
  %11 = alloca %"class.std::__cxx11::basic_string", align 8
  store ptr %0, ptr %5, align 8
  store i64 %1, ptr %6, align 8
  store i64 %2, ptr %7, align 8
  store i32 %3, ptr %8, align 4
  call void @llvm.memcpy.p0.p0.i64(ptr align 16 %9, ptr align 16 @__const._ZN32pxrInternal_v0_24__pxrReserved__14ArchFileAdviseEP8_IO_FILElmNS_14ArchFileAdviceE.adviceMap, i64 16, i1 false)
  %12 = load ptr, ptr %5, align 8
  %13 = call i32 @fileno(ptr noundef %12) #6
  %14 = load i64, ptr %6, align 8
  %15 = load i64, ptr %7, align 8
  %16 = load i32, ptr %8, align 4
  %17 = zext i32 %16 to i64
  %18 = getelementptr inbounds [4 x i32], ptr %9, i64 0, i64 %17
  %19 = load i32, ptr %18, align 4
  %20 = call i32 @posix_fadvise(i32 noundef %13, i64 noundef %14, i64 noundef %15, i32 noundef %19) #6
  store i32 %20, ptr %10, align 4
  %21 = load i32, ptr %10, align 4
  %22 = icmp ne i32 %21, 0
  br i1 %22, label %23, label %34

23:                                               ; preds = %4
  %24 = load ptr, ptr @stderr, align 8
  %25 = load ptr, ptr %5, align 8
  %26 = call i32 @fileno(ptr noundef %25) #6
  %27 = load i64, ptr %6, align 8
  %28 = load i64, ptr %7, align 8
  %29 = load i32, ptr %10, align 4
  %30 = call ptr @__errno_location() #16
  %31 = load i32, ptr %30, align 4
  call void @_ZN32pxrInternal_v0_24__pxrReserved__12ArchStrerrorB5cxx11Ev(ptr dead_on_unwind writable sret(%"class.std::__cxx11::basic_string") align 8 %11)
  %32 = call noundef ptr @_ZNKSt7__cxx1112basic_stringIcSt11char_traitsIcESaIcEE5c_strEv(ptr noundef nonnull align 8 dereferenceable(32) %11) #6
  %33 = call i32 (ptr, ptr, ...) @fprintf(ptr noundef %24, ptr noundef @.str.8, i32 noundef %26, i64 noundef %27, i64 noundef %28, i32 noundef %29, i32 noundef %31, ptr noundef %32) #6
  call void @_ZNSt7__cxx1112basic_stringIcSt11char_traitsIcESaIcEED1Ev(ptr noundef nonnull align 8 dereferenceable(32) %11) #6
  br label %34

34:                                               ; preds = %23, %4
  ret void
}