; Function Attrs: mustprogress uwtable
define void @_ZN32pxrInternal_v0_24__pxrReserved__14ArchFileAdviseEP8_IO_FILElmNS_14ArchFileAdviceE(ptr noundef captures(none) %0, i64 noundef %1, i64 noundef %2, i32 noundef %3) local_unnamed_addr #6 {
  %5 = alloca %"class.std::__cxx11::basic_string", align 8
  %6 = tail call i32 @fileno(ptr noundef %0) #23
  %7 = zext i32 %3 to i64
  %8 = getelementptr inbounds nuw [4 x i32], ptr @__const._ZN32pxrInternal_v0_24__pxrReserved__14ArchFileAdviseEP8_IO_FILElmNS_14ArchFileAdviceE.adviceMap, i64 0, i64 %7
  %9 = load i32, ptr %8, align 4
  %10 = tail call i32 @posix_fadvise(i32 noundef %6, i64 noundef %1, i64 noundef %2, i32 noundef %9) #23
  %.not = icmp eq i32 %10, 0
  br i1 %.not, label %18, label %11

11:                                               ; preds = %4
  %12 = load ptr, ptr @stderr, align 8
  %13 = tail call i32 @fileno(ptr noundef %0) #23
  %14 = tail call ptr @__errno_location() #27
  %15 = load i32, ptr %14, align 4
  call void @_ZN32pxrInternal_v0_24__pxrReserved__12ArchStrerrorB5cxx11Ev(ptr dead_on_unwind nonnull writable sret(%"class.std::__cxx11::basic_string") align 8 %5)
  %16 = call noundef ptr @_ZNKSt7__cxx1112basic_stringIcSt11char_traitsIcESaIcEE5c_strEv(ptr noundef nonnull align 8 dereferenceable(32) %5) #23
  %17 = call i32 (ptr, ptr, ...) @fprintf(ptr noundef %12, ptr noundef nonnull @.str.8, i32 noundef %13, i64 noundef %1, i64 noundef %2, i32 noundef %10, i32 noundef %15, ptr noundef %16) #28
  call void @_ZNSt7__cxx1112basic_stringIcSt11char_traitsIcESaIcEED1Ev(ptr noundef nonnull align 8 dereferenceable(32) %5) #23
  br label %18

18:                                               ; preds = %11, %4
  ret void
}